target datalayout = "e-m:e-p270:32:32-p271:32:32-p272:64:64-i64:64-i128:128-f80:128-n8:16:32:64-S128"
target triple = "x86_64-pc-linux-gnu"

%"class.open3d::core::Dtype" = type { i32, i64, [16 x i8] }
%"class.open3d::core::Device" = type { i32, i32 }

@.str = private unnamed_addr constant [144 x i8] c"generated/home/dtcxzyw/WorkSpace/Projects/compilers/llvm-opt-benchmark/bench/open3d/Open3D/cpp/open3d/t/pipelines/kernel/FillInLinearSystem.cpp\00", align 1
@_ZN6open3d4core7Float32E = external global %"class.open3d::core::Dtype", align 8
@.str.1 = private unnamed_addr constant [40 x i8] c"AtA should have the same device as Atb.\00", align 1
@.str.2 = private unnamed_addr constant [59 x i8] c"Points i should have the same device as the linear system.\00", align 1
@.str.3 = private unnamed_addr constant [59 x i8] c"Points j should have the same device as the linear system.\00", align 1
@.str.4 = private unnamed_addr constant [60 x i8] c"Normals i should have the same device as the linear system.\00", align 1
@.str.5 = private unnamed_addr constant [49 x i8] c"Not compiled with CUDA, but CUDA device is used.\00", align 1
@.str.6 = private unnamed_addr constant [21 x i8] c"Unimplemented device\00", align 1

; Function Attrs: inlinehint mustprogress nounwind ssp uwtable
define linkonce_odr noundef i32 @_ZNK6open3d4core6Device7GetTypeEv(ptr noundef nonnull align 4 dereferenceable(8) %0) #8 comdat align 2 {
  %2 = alloca ptr, align 8
  store ptr %0, ptr %2, align 8, !tbaa !42
  %3 = load ptr, ptr %2, align 8
  %4 = getelementptr inbounds nuw %"class.open3d::core::Device", ptr %3, i32 0, i32 0
  %5 = load i32, ptr %4, align 4, !tbaa !44
  ret i32 %5
}

; Function Attrs: inlinehint mustprogress ssp uwtable
define linkonce_odr noundef zeroext i1 @_ZNK6open3d4core8IsDevice6IsCUDAEv(ptr noundef nonnull align 8 dereferenceable(8) %0) #4 comdat align 2 {
  %2 = alloca ptr, align 8
  %3 = alloca %"class.open3d::core::Device", align 4
  store ptr %0, ptr %2, align 8, !tbaa !17
  %4 = load ptr, ptr %2, align 8
  call void @llvm.lifetime.start.p0(i64 8, ptr %3) #15
  %5 = load ptr, ptr %4, align 8, !tbaa !13
  %6 = getelementptr inbounds ptr, ptr %5, i64 2
  %7 = load ptr, ptr %6, align 8
  %8 = call i64 %7(ptr noundef nonnull align 8 dereferenceable(8) %4)
  store i64 %8, ptr %3, align 4
  %9 = call noundef i32 @_ZNK6open3d4core6Device7GetTypeEv(ptr noundef nonnull align 4 dereferenceable(8) %3)
  %10 = icmp eq i32 %9, 1
  call void @llvm.lifetime.end.p0(i64 8, ptr %3) #15
  ret i1 %10
}

; Function Attrs: inlinehint mustprogress ssp uwtable
define linkonce_odr noundef zeroext i1 @_ZNK6open3d4core8IsDevice5IsCPUEv(ptr noundef nonnull align 8 dereferenceable(8) %0) #4 comdat align 2 {
  %2 = alloca ptr, align 8
  %3 = alloca %"class.open3d::core::Device", align 4
  store ptr %0, ptr %2, align 8, !tbaa !17
  %4 = load ptr, ptr %2, align 8
  call void @llvm.lifetime.start.p0(i64 8, ptr %3) #15
  %5 = load ptr, ptr %4, align 8, !tbaa !13
  %6 = getelementptr inbounds ptr, ptr %5, i64 2
  %7 = load ptr, ptr %6, align 8
  %8 = call i64 %7(ptr noundef nonnull align 8 dereferenceable(8) %4)
  store i64 %8, ptr %3, align 4
  %9 = call noundef i32 @_ZNK6open3d4core6Device7GetTypeEv(ptr noundef nonnull align 4 dereferenceable(8) %3)
  %10 = icmp eq i32 %9, 0
  call void @llvm.lifetime.end.p0(i64 8, ptr %3) #15
  ret i1 %10
}

; Function Attrs: mustprogress ssp uwtable
define void @_ZN6open3d1t9pipelines6kernel24FillInRigidAlignmentTermERNS_4core6TensorES5_S5_RKS4_S7_S7_iif(ptr noundef nonnull align 8 dereferenceable(160) %0, ptr noundef nonnull align 8 dereferenceable(160) %1, ptr noundef nonnull align 8 dereferenceable(160) %2, ptr noundef nonnull align 8 dereferenceable(160) %3, ptr noundef nonnull align 8 dereferenceable(160) %4, ptr noundef nonnull align 8 dereferenceable(160) %5, i32 noundef %6, i32 noundef %7, float noundef %8) #0 {
  %10 = alloca ptr, align 8
  %11 = alloca ptr, align 8
  %12 = alloca ptr, align 8
  %13 = alloca ptr, align 8
  %14 = alloca ptr, align 8
  %15 = alloca ptr, align 8
  %16 = alloca i32, align 4
  %17 = alloca i32, align 4
  %18 = alloca float, align 4
  %19 = alloca %"class.open3d::core::Device", align 4
  %20 = alloca %"class.open3d::core::Device", align 4
  %21 = alloca %"class.open3d::core::Device", align 4
  %22 = alloca %"class.open3d::core::Device", align 4
  %23 = alloca %"class.open3d::core::Device", align 4
  store ptr %0, ptr %10, align 8, !tbaa !4
  store ptr %1, ptr %11, align 8, !tbaa !4
  store ptr %2, ptr %12, align 8, !tbaa !4
  store ptr %3, ptr %13, align 8, !tbaa !4
  store ptr %4, ptr %14, align 8, !tbaa !4
  store ptr %5, ptr %15, align 8, !tbaa !4
  store i32 %6, ptr %16, align 4, !tbaa !9
  store i32 %7, ptr %17, align 4, !tbaa !9
  store float %8, ptr %18, align 4, !tbaa !11
  %24 = load ptr, ptr %10, align 8, !tbaa !4
  call void @_ZN6open3d4core12tensor_check18AssertTensorDtype_EPKciS3_RKNS0_6TensorERKNS0_5DtypeE(ptr noundef @.str, i32 noundef 27, ptr noundef @__PRETTY_FUNCTION__._ZN6open3d1t9pipelines6kernel24FillInRigidAlignmentTermERNS_4core6TensorES5_S5_RKS4_S7_S7_iif, ptr noundef nonnull align 8 dereferenceable(160) %24, ptr noundef nonnull align 8 dereferenceable(32) @_ZN6open3d4core7Float32E)
  %25 = load ptr, ptr %11, align 8, !tbaa !4
  call void @_ZN6open3d4core12tensor_check18AssertTensorDtype_EPKciS3_RKNS0_6TensorERKNS0_5DtypeE(ptr noundef @.str, i32 noundef 28, ptr noundef @__PRETTY_FUNCTION__._ZN6open3d1t9pipelines6kernel24FillInRigidAlignmentTermERNS_4core6TensorES5_S5_RKS4_S7_S7_iif, ptr noundef nonnull align 8 dereferenceable(160) %25, ptr noundef nonnull align 8 dereferenceable(32) @_ZN6open3d4core7Float32E)
  %26 = load ptr, ptr %12, align 8, !tbaa !4
  call void @_ZN6open3d4core12tensor_check18AssertTensorDtype_EPKciS3_RKNS0_6TensorERKNS0_5DtypeE(ptr noundef @.str, i32 noundef 29, ptr noundef @__PRETTY_FUNCTION__._ZN6open3d1t9pipelines6kernel24FillInRigidAlignmentTermERNS_4core6TensorES5_S5_RKS4_S7_S7_iif, ptr noundef nonnull align 8 dereferenceable(160) %26, ptr noundef nonnull align 8 dereferenceable(32) @_ZN6open3d4core7Float32E)
  %27 = load ptr, ptr %13, align 8, !tbaa !4
  call void @_ZN6open3d4core12tensor_check18AssertTensorDtype_EPKciS3_RKNS0_6TensorERKNS0_5DtypeE(ptr noundef @.str, i32 noundef 30, ptr noundef @__PRETTY_FUNCTION__._ZN6open3d1t9pipelines6kernel24FillInRigidAlignmentTermERNS_4core6TensorES5_S5_RKS4_S7_S7_iif, ptr noundef nonnull align 8 dereferenceable(160) %27, ptr noundef nonnull align 8 dereferenceable(32) @_ZN6open3d4core7Float32E)
  %28 = load ptr, ptr %14, align 8, !tbaa !4
  call void @_ZN6open3d4core12tensor_check18AssertTensorDtype_EPKciS3_RKNS0_6TensorERKNS0_5DtypeE(ptr noundef @.str, i32 noundef 31, ptr noundef @__PRETTY_FUNCTION__._ZN6open3d1t9pipelines6kernel24FillInRigidAlignmentTermERNS_4core6TensorES5_S5_RKS4_S7_S7_iif, ptr noundef nonnull align 8 dereferenceable(160) %28, ptr noundef nonnull align 8 dereferenceable(32) @_ZN6open3d4core7Float32E)
  %29 = load ptr, ptr %15, align 8, !tbaa !4
  call void @_ZN6open3d4core12tensor_check18AssertTensorDtype_EPKciS3_RKNS0_6TensorERKNS0_5DtypeE(ptr noundef @.str, i32 noundef 32, ptr noundef @__PRETTY_FUNCTION__._ZN6open3d1t9pipelines6kernel24FillInRigidAlignmentTermERNS_4core6TensorES5_S5_RKS4_S7_S7_iif, ptr noundef nonnull align 8 dereferenceable(160) %29, ptr noundef nonnull align 8 dereferenceable(32) @_ZN6open3d4core7Float32E)
  call void @llvm.lifetime.start.p0(i64 8, ptr %19) #15
  %30 = load ptr, ptr %10, align 8, !tbaa !4
  %31 = load ptr, ptr %30, align 8, !tbaa !13
  %32 = getelementptr inbounds ptr, ptr %31, i64 2
  %33 = load ptr, ptr %32, align 8
  %34 = call i64 %33(ptr noundef nonnull align 8 dereferenceable(160) %30)
  store i64 %34, ptr %19, align 4
  call void @llvm.lifetime.start.p0(i64 8, ptr %20) #15
  %35 = load ptr, ptr %11, align 8, !tbaa !4
  %36 = load ptr, ptr %35, align 8, !tbaa !13
  %37 = getelementptr inbounds ptr, ptr %36, i64 2
  %38 = load ptr, ptr %37, align 8
  %39 = call i64 %38(ptr noundef nonnull align 8 dereferenceable(160) %35)
  store i64 %39, ptr %20, align 4
  %40 = call noundef zeroext i1 @_ZNK6open3d4core6DeviceneERKS1_(ptr noundef nonnull align 4 dereferenceable(8) %20, ptr noundef nonnull align 4 dereferenceable(8) %19)
  call void @llvm.lifetime.end.p0(i64 8, ptr %20) #15
  br i1 %40, label %41, label %42

41:                                               ; preds = %9
  call void @_ZN6open3d7utility6Logger9LogError_IJEEEvPKciS4_S4_DpOT_(ptr noundef @.str, i32 noundef 36, ptr noundef @__PRETTY_FUNCTION__._ZN6open3d1t9pipelines6kernel24FillInRigidAlignmentTermERNS_4core6TensorES5_S5_RKS4_S7_S7_iif, ptr noundef @.str.1) #16
  unreachable

42:                                               ; preds = %9
  call void @llvm.lifetime.start.p0(i64 8, ptr %21) #15
  %43 = load ptr, ptr %13, align 8, !tbaa !4
  %44 = load ptr, ptr %43, align 8, !tbaa !13
  %45 = getelementptr inbounds ptr, ptr %44, i64 2
  %46 = load ptr, ptr %45, align 8
  %47 = call i64 %46(ptr noundef nonnull align 8 dereferenceable(160) %43)
  store i64 %47, ptr %21, align 4
  %48 = call noundef zeroext i1 @_ZNK6open3d4core6DeviceneERKS1_(ptr noundef nonnull align 4 dereferenceable(8) %21, ptr noundef nonnull align 4 dereferenceable(8) %19)
  call void @llvm.lifetime.end.p0(i64 8, ptr %21) #15
  br i1 %48, label %49, label %50

49:                                               ; preds = %42
  call void @_ZN6open3d7utility6Logger9LogError_IJEEEvPKciS4_S4_DpOT_(ptr noundef @.str, i32 noundef 40, ptr noundef @__PRETTY_FUNCTION__._ZN6open3d1t9pipelines6kernel24FillInRigidAlignmentTermERNS_4core6TensorES5_S5_RKS4_S7_S7_iif, ptr noundef @.str.2) #16
  unreachable

50:                                               ; preds = %42
  call void @llvm.lifetime.start.p0(i64 8, ptr %22) #15
  %51 = load ptr, ptr %14, align 8, !tbaa !4
  %52 = load ptr, ptr %51, align 8, !tbaa !13
  %53 = getelementptr inbounds ptr, ptr %52, i64 2
  %54 = load ptr, ptr %53, align 8
  %55 = call i64 %54(ptr noundef nonnull align 8 dereferenceable(160) %51)
  store i64 %55, ptr %22, align 4
  %56 = call noundef zeroext i1 @_ZNK6open3d4core6DeviceneERKS1_(ptr noundef nonnull align 4 dereferenceable(8) %22, ptr noundef nonnull align 4 dereferenceable(8) %19)
  call void @llvm.lifetime.end.p0(i64 8, ptr %22) #15
  br i1 %56, label %57, label %58

57:                                               ; preds = %50
  call void @_ZN6open3d7utility6Logger9LogError_IJEEEvPKciS4_S4_DpOT_(ptr noundef @.str, i32 noundef 44, ptr noundef @__PRETTY_FUNCTION__._ZN6open3d1t9pipelines6kernel24FillInRigidAlignmentTermERNS_4core6TensorES5_S5_RKS4_S7_S7_iif, ptr noundef @.str.3) #16
  unreachable

58:                                               ; preds = %50
  call void @llvm.lifetime.start.p0(i64 8, ptr %23) #15
  %59 = load ptr, ptr %15, align 8, !tbaa !4
  %60 = load ptr, ptr %59, align 8, !tbaa !13
  %61 = getelementptr inbounds ptr, ptr %60, i64 2
  %62 = load ptr, ptr %61, align 8
  %63 = call i64 %62(ptr noundef nonnull align 8 dereferenceable(160) %59)
  store i64 %63, ptr %23, align 4
  %64 = call noundef zeroext i1 @_ZNK6open3d4core6DeviceneERKS1_(ptr noundef nonnull align 4 dereferenceable(8) %23, ptr noundef nonnull align 4 dereferenceable(8) %19)
  call void @llvm.lifetime.end.p0(i64 8, ptr %23) #15
  br i1 %64, label %65, label %66

65:                                               ; preds = %58
  call void @_ZN6open3d7utility6Logger9LogError_IJEEEvPKciS4_S4_DpOT_(ptr noundef @.str, i32 noundef 48, ptr noundef @__PRETTY_FUNCTION__._ZN6open3d1t9pipelines6kernel24FillInRigidAlignmentTermERNS_4core6TensorES5_S5_RKS4_S7_S7_iif, ptr noundef @.str.4) #16
  unreachable

66:                                               ; preds = %58
  %67 = load ptr, ptr %10, align 8, !tbaa !4
  %68 = call noundef zeroext i1 @_ZNK6open3d4core8IsDevice5IsCPUEv(ptr noundef nonnull align 8 dereferenceable(8) %67)
  br i1 %68, label %69, label %79

69:                                               ; preds = %66
  %70 = load ptr, ptr %10, align 8, !tbaa !4
  %71 = load ptr, ptr %11, align 8, !tbaa !4
  %72 = load ptr, ptr %12, align 8, !tbaa !4
  %73 = load ptr, ptr %13, align 8, !tbaa !4
  %74 = load ptr, ptr %14, align 8, !tbaa !4
  %75 = load ptr, ptr %15, align 8, !tbaa !4
  %76 = load i32, ptr %16, align 4, !tbaa !9
  %77 = load i32, ptr %17, align 4, !tbaa !9
  %78 = load float, ptr %18, align 4, !tbaa !11
  call void @_ZN6open3d1t9pipelines6kernel27FillInRigidAlignmentTermCPUERNS_4core6TensorES5_S5_RKS4_S7_S7_iif(ptr noundef nonnull align 8 dereferenceable(160) %70, ptr noundef nonnull align 8 dereferenceable(160) %71, ptr noundef nonnull align 8 dereferenceable(160) %72, ptr noundef nonnull align 8 dereferenceable(160) %73, ptr noundef nonnull align 8 dereferenceable(160) %74, ptr noundef nonnull align 8 dereferenceable(160) %75, i32 noundef %76, i32 noundef %77, float noundef %78)
  br label %84

79:                                               ; preds = %66
  %80 = load ptr, ptr %10, align 8, !tbaa !4
  %81 = call noundef zeroext i1 @_ZNK6open3d4core8IsDevice6IsCUDAEv(ptr noundef nonnull align 8 dereferenceable(8) %80)
  br i1 %81, label %82, label %83

82:                                               ; preds = %79
  call void @_ZN6open3d7utility6Logger9LogError_IJEEEvPKciS4_S4_DpOT_(ptr noundef @.str, i32 noundef 62, ptr noundef @__PRETTY_FUNCTION__._ZN6open3d1t9pipelines6kernel24FillInRigidAlignmentTermERNS_4core6TensorES5_S5_RKS4_S7_S7_iif, ptr noundef @.str.5) #16
  unreachable

83:                                               ; preds = %79
  call void @_ZN6open3d7utility6Logger9LogError_IJEEEvPKciS4_S4_DpOT_(ptr noundef @.str, i32 noundef 65, ptr noundef @__PRETTY_FUNCTION__._ZN6open3d1t9pipelines6kernel24FillInRigidAlignmentTermERNS_4core6TensorES5_S5_RKS4_S7_S7_iif, ptr noundef @.str.6) #16
  unreachable

84:                                               ; preds = %69
  call void @llvm.lifetime.end.p0(i64 8, ptr %19) #15
  ret void
}