; Function Attrs: mustprogress ssp uwtable
define void @_ZN6open3d1t9pipelines6kernel24FillInRigidAlignmentTermERNS_4core6TensorES5_S5_RKS4_S7_S7_iif(ptr noundef nonnull align 8 dereferenceable(160) %0, ptr noundef nonnull align 8 dereferenceable(160) %1, ptr noundef nonnull align 8 dereferenceable(160) %2, ptr noundef nonnull align 8 dereferenceable(160) %3, ptr noundef nonnull align 8 dereferenceable(160) %4, ptr noundef nonnull align 8 dereferenceable(160) %5, i32 noundef %6, i32 noundef %7, float noundef %8) local_unnamed_addr #0 {
  %10 = alloca %"class.open3d::core::Device", align 8
  %11 = alloca %"class.open3d::core::Device", align 8
  %12 = alloca %"class.open3d::core::Device", align 8
  %13 = alloca %"class.open3d::core::Device", align 8
  %14 = alloca %"class.open3d::core::Device", align 8
  tail call void @_ZN6open3d4core12tensor_check18AssertTensorDtype_EPKciS3_RKNS0_6TensorERKNS0_5DtypeE(ptr noundef nonnull @.str, i32 noundef 27, ptr noundef nonnull @__PRETTY_FUNCTION__._ZN6open3d1t9pipelines6kernel24FillInRigidAlignmentTermERNS_4core6TensorES5_S5_RKS4_S7_S7_iif, ptr noundef nonnull align 8 dereferenceable(160) %0, ptr noundef nonnull align 8 dereferenceable(32) @_ZN6open3d4core7Float32E)
  tail call void @_ZN6open3d4core12tensor_check18AssertTensorDtype_EPKciS3_RKNS0_6TensorERKNS0_5DtypeE(ptr noundef nonnull @.str, i32 noundef 28, ptr noundef nonnull @__PRETTY_FUNCTION__._ZN6open3d1t9pipelines6kernel24FillInRigidAlignmentTermERNS_4core6TensorES5_S5_RKS4_S7_S7_iif, ptr noundef nonnull align 8 dereferenceable(160) %1, ptr noundef nonnull align 8 dereferenceable(32) @_ZN6open3d4core7Float32E)
  tail call void @_ZN6open3d4core12tensor_check18AssertTensorDtype_EPKciS3_RKNS0_6TensorERKNS0_5DtypeE(ptr noundef nonnull @.str, i32 noundef 29, ptr noundef nonnull @__PRETTY_FUNCTION__._ZN6open3d1t9pipelines6kernel24FillInRigidAlignmentTermERNS_4core6TensorES5_S5_RKS4_S7_S7_iif, ptr noundef nonnull align 8 dereferenceable(160) %2, ptr noundef nonnull align 8 dereferenceable(32) @_ZN6open3d4core7Float32E)
  tail call void @_ZN6open3d4core12tensor_check18AssertTensorDtype_EPKciS3_RKNS0_6TensorERKNS0_5DtypeE(ptr noundef nonnull @.str, i32 noundef 30, ptr noundef nonnull @__PRETTY_FUNCTION__._ZN6open3d1t9pipelines6kernel24FillInRigidAlignmentTermERNS_4core6TensorES5_S5_RKS4_S7_S7_iif, ptr noundef nonnull align 8 dereferenceable(160) %3, ptr noundef nonnull align 8 dereferenceable(32) @_ZN6open3d4core7Float32E)
  tail call void @_ZN6open3d4core12tensor_check18AssertTensorDtype_EPKciS3_RKNS0_6TensorERKNS0_5DtypeE(ptr noundef nonnull @.str, i32 noundef 31, ptr noundef nonnull @__PRETTY_FUNCTION__._ZN6open3d1t9pipelines6kernel24FillInRigidAlignmentTermERNS_4core6TensorES5_S5_RKS4_S7_S7_iif, ptr noundef nonnull align 8 dereferenceable(160) %4, ptr noundef nonnull align 8 dereferenceable(32) @_ZN6open3d4core7Float32E)
  tail call void @_ZN6open3d4core12tensor_check18AssertTensorDtype_EPKciS3_RKNS0_6TensorERKNS0_5DtypeE(ptr noundef nonnull @.str, i32 noundef 32, ptr noundef nonnull @__PRETTY_FUNCTION__._ZN6open3d1t9pipelines6kernel24FillInRigidAlignmentTermERNS_4core6TensorES5_S5_RKS4_S7_S7_iif, ptr noundef nonnull align 8 dereferenceable(160) %5, ptr noundef nonnull align 8 dereferenceable(32) @_ZN6open3d4core7Float32E)
  call void @llvm.lifetime.start.p0(i64 8, ptr nonnull %10) #10
  %15 = load ptr, ptr %0, align 8, !tbaa !4
  %16 = getelementptr inbounds nuw i8, ptr %15, i64 16
  %17 = load ptr, ptr %16, align 8
  %18 = tail call i64 %17(ptr noundef nonnull align 8 dereferenceable(160) %0)
  store i64 %18, ptr %10, align 8
  call void @llvm.lifetime.start.p0(i64 8, ptr nonnull %11) #10
  %19 = load ptr, ptr %1, align 8, !tbaa !4
  %20 = getelementptr inbounds nuw i8, ptr %19, i64 16
  %21 = load ptr, ptr %20, align 8
  %22 = tail call i64 %21(ptr noundef nonnull align 8 dereferenceable(160) %1)
  store i64 %22, ptr %11, align 8
  %23 = call noundef zeroext i1 @_ZNK6open3d4core6DeviceneERKS1_(ptr noundef nonnull align 4 dereferenceable(8) %11, ptr noundef nonnull align 4 dereferenceable(8) %10)
  call void @llvm.lifetime.end.p0(i64 8, ptr nonnull %11) #10
  br i1 %23, label %24, label %25

24:                                               ; preds = %9
  call void @_ZN6open3d7utility6Logger9LogError_IJEEEvPKciS4_S4_DpOT_(ptr noundef nonnull @.str, i32 noundef 36, ptr noundef nonnull @__PRETTY_FUNCTION__._ZN6open3d1t9pipelines6kernel24FillInRigidAlignmentTermERNS_4core6TensorES5_S5_RKS4_S7_S7_iif, ptr noundef nonnull @.str.1) #11
  unreachable

25:                                               ; preds = %9
  call void @llvm.lifetime.start.p0(i64 8, ptr nonnull %12) #10
  %26 = load ptr, ptr %3, align 8, !tbaa !4
  %27 = getelementptr inbounds nuw i8, ptr %26, i64 16
  %28 = load ptr, ptr %27, align 8
  %29 = call i64 %28(ptr noundef nonnull align 8 dereferenceable(160) %3)
  store i64 %29, ptr %12, align 8
  %30 = call noundef zeroext i1 @_ZNK6open3d4core6DeviceneERKS1_(ptr noundef nonnull align 4 dereferenceable(8) %12, ptr noundef nonnull align 4 dereferenceable(8) %10)
  call void @llvm.lifetime.end.p0(i64 8, ptr nonnull %12) #10
  br i1 %30, label %31, label %32

31:                                               ; preds = %25
  call void @_ZN6open3d7utility6Logger9LogError_IJEEEvPKciS4_S4_DpOT_(ptr noundef nonnull @.str, i32 noundef 40, ptr noundef nonnull @__PRETTY_FUNCTION__._ZN6open3d1t9pipelines6kernel24FillInRigidAlignmentTermERNS_4core6TensorES5_S5_RKS4_S7_S7_iif, ptr noundef nonnull @.str.2) #11
  unreachable

32:                                               ; preds = %25
  call void @llvm.lifetime.start.p0(i64 8, ptr nonnull %13) #10
  %33 = load ptr, ptr %4, align 8, !tbaa !4
  %34 = getelementptr inbounds nuw i8, ptr %33, i64 16
  %35 = load ptr, ptr %34, align 8
  %36 = call i64 %35(ptr noundef nonnull align 8 dereferenceable(160) %4)
  store i64 %36, ptr %13, align 8
  %37 = call noundef zeroext i1 @_ZNK6open3d4core6DeviceneERKS1_(ptr noundef nonnull align 4 dereferenceable(8) %13, ptr noundef nonnull align 4 dereferenceable(8) %10)
  call void @llvm.lifetime.end.p0(i64 8, ptr nonnull %13) #10
  br i1 %37, label %38, label %39

38:                                               ; preds = %32
  call void @_ZN6open3d7utility6Logger9LogError_IJEEEvPKciS4_S4_DpOT_(ptr noundef nonnull @.str, i32 noundef 44, ptr noundef nonnull @__PRETTY_FUNCTION__._ZN6open3d1t9pipelines6kernel24FillInRigidAlignmentTermERNS_4core6TensorES5_S5_RKS4_S7_S7_iif, ptr noundef nonnull @.str.3) #11
  unreachable

39:                                               ; preds = %32
  call void @llvm.lifetime.start.p0(i64 8, ptr nonnull %14) #10
  %40 = load ptr, ptr %5, align 8, !tbaa !4
  %41 = getelementptr inbounds nuw i8, ptr %40, i64 16
  %42 = load ptr, ptr %41, align 8
  %43 = call i64 %42(ptr noundef nonnull align 8 dereferenceable(160) %5)
  store i64 %43, ptr %14, align 8
  %44 = call noundef zeroext i1 @_ZNK6open3d4core6DeviceneERKS1_(ptr noundef nonnull align 4 dereferenceable(8) %14, ptr noundef nonnull align 4 dereferenceable(8) %10)
  call void @llvm.lifetime.end.p0(i64 8, ptr nonnull %14) #10
  br i1 %44, label %45, label %46

45:                                               ; preds = %39
  call void @_ZN6open3d7utility6Logger9LogError_IJEEEvPKciS4_S4_DpOT_(ptr noundef nonnull @.str, i32 noundef 48, ptr noundef nonnull @__PRETTY_FUNCTION__._ZN6open3d1t9pipelines6kernel24FillInRigidAlignmentTermERNS_4core6TensorES5_S5_RKS4_S7_S7_iif, ptr noundef nonnull @.str.4) #11
  unreachable

46:                                               ; preds = %39
  %47 = load ptr, ptr %0, align 8, !tbaa !4
  %48 = getelementptr inbounds nuw i8, ptr %47, i64 16
  %49 = load ptr, ptr %48, align 8
  %50 = call i64 %49(ptr noundef nonnull align 8 dereferenceable(8) %0)
  %51 = and i64 %50, 4294967295
  %52 = icmp eq i64 %51, 0
  br i1 %52, label %53, label %54

53:                                               ; preds = %46
  call void @_ZN6open3d1t9pipelines6kernel27FillInRigidAlignmentTermCPUERNS_4core6TensorES5_S5_RKS4_S7_S7_iif(ptr noundef nonnull align 8 dereferenceable(160) %0, ptr noundef nonnull align 8 dereferenceable(160) %1, ptr noundef nonnull align 8 dereferenceable(160) %2, ptr noundef nonnull align 8 dereferenceable(160) %3, ptr noundef nonnull align 8 dereferenceable(160) %4, ptr noundef nonnull align 8 dereferenceable(160) %5, i32 noundef %6, i32 noundef %7, float noundef %8)
  call void @llvm.lifetime.end.p0(i64 8, ptr nonnull %10) #10
  ret void

54:                                               ; preds = %46
  %55 = load ptr, ptr %0, align 8, !tbaa !4
  %56 = getelementptr inbounds nuw i8, ptr %55, i64 16
  %57 = load ptr, ptr %56, align 8
  %58 = call i64 %57(ptr noundef nonnull align 8 dereferenceable(8) %0)
  %59 = and i64 %58, 4294967295
  %60 = icmp eq i64 %59, 1
  br i1 %60, label %61, label %62

61:                                               ; preds = %54
  call void @_ZN6open3d7utility6Logger9LogError_IJEEEvPKciS4_S4_DpOT_(ptr noundef nonnull @.str, i32 noundef 62, ptr noundef nonnull @__PRETTY_FUNCTION__._ZN6open3d1t9pipelines6kernel24FillInRigidAlignmentTermERNS_4core6TensorES5_S5_RKS4_S7_S7_iif, ptr noundef nonnull @.str.5) #11
  unreachable

62:                                               ; preds = %54
  call void @_ZN6open3d7utility6Logger9LogError_IJEEEvPKciS4_S4_DpOT_(ptr noundef nonnull @.str, i32 noundef 65, ptr noundef nonnull @__PRETTY_FUNCTION__._ZN6open3d1t9pipelines6kernel24FillInRigidAlignmentTermERNS_4core6TensorES5_S5_RKS4_S7_S7_iif, ptr noundef nonnull @.str.6) #11
  unreachable
}